; Function Attrs: mustprogress nofree nounwind willreturn memory(write, argmem: none, inaccessiblemem: readwrite) uwtable
define noalias noundef ptr @Lpk_FunAlloc(i32 noundef %0) local_unnamed_addr #0 {
  %2 = icmp slt i32 %0, 6
  %3 = add nsw i32 %0, -5
  %4 = shl nuw i32 1, %3
  %5 = select i1 %2, i32 1, i32 %4
  %6 = sext i32 %5 to i64
  %7 = mul nsw i64 %6, 12
  %8 = add nsw i64 %7, 232
  %9 = tail call noalias ptr @malloc(i64 noundef %8) #12
  tail call void @llvm.memset.p0.i64(ptr noundef nonnull align 8 dereferenceable(232) %9, i8 0, i64 232, i1 false)
  ret ptr %9
}